target datalayout = "e-m:e-p270:32:32-p271:32:32-p272:64:64-i64:64-i128:128-f80:128-n8:16:32:64-S128"
target triple = "x86_64-pc-linux-gnu"

@.str.4 = private unnamed_addr constant [12 x i8] c"%s RMSD %g\0A\00", align 1

; Function Attrs: mustprogress uwtable
define internal void @_ZL16cmp_rvecs_rmstolP8_IO_FILEPKciPA3_KfS5_ff(ptr noundef %0, ptr noundef %1, i32 noundef %2, ptr noundef %3, ptr noundef %4, float noundef %5, float noundef %6) #0 {
  %8 = alloca ptr, align 8
  %9 = alloca ptr, align 8
  %10 = alloca i32, align 4
  %11 = alloca ptr, align 8
  %12 = alloca ptr, align 8
  %13 = alloca float, align 4
  %14 = alloca float, align 4
  %15 = alloca i32, align 4
  %16 = alloca i32, align 4
  %17 = alloca double, align 8
  store ptr %0, ptr %8, align 8, !tbaa !4
  store ptr %1, ptr %9, align 8, !tbaa !9
  store i32 %2, ptr %10, align 4, !tbaa !11
  store ptr %3, ptr %11, align 8, !tbaa !13
  store ptr %4, ptr %12, align 8, !tbaa !13
  store float %5, ptr %13, align 4, !tbaa !15
  store float %6, ptr %14, align 4, !tbaa !15
  call void @llvm.lifetime.start.p0(i64 4, ptr %15) #9
  call void @llvm.lifetime.start.p0(i64 4, ptr %16) #9
  call void @llvm.lifetime.start.p0(i64 8, ptr %17) #9
  store double 0.000000e+00, ptr %17, align 8, !tbaa !23
  store i32 0, ptr %15, align 4, !tbaa !11
  br label %18

18:                                               ; preds = %68, %7
  %19 = load i32, ptr %15, align 4, !tbaa !11
  %20 = load i32, ptr %10, align 4, !tbaa !11
  %21 = icmp slt i32 %19, %20
  br i1 %21, label %22, label %71

22:                                               ; preds = %18
  store i32 0, ptr %16, align 4, !tbaa !11
  br label %23

23:                                               ; preds = %64, %22
  %24 = load i32, ptr %16, align 4, !tbaa !11
  %25 = icmp slt i32 %24, 3
  br i1 %25, label %26, label %67

26:                                               ; preds = %23
  %27 = load ptr, ptr %11, align 8, !tbaa !13
  %28 = load i32, ptr %15, align 4, !tbaa !11
  %29 = sext i32 %28 to i64
  %30 = getelementptr inbounds [3 x float], ptr %27, i64 %29
  %31 = load i32, ptr %16, align 4, !tbaa !11
  %32 = sext i32 %31 to i64
  %33 = getelementptr inbounds [3 x float], ptr %30, i64 0, i64 %32
  %34 = load float, ptr %33, align 4, !tbaa !15
  %35 = load ptr, ptr %11, align 8, !tbaa !13
  %36 = load i32, ptr %15, align 4, !tbaa !11
  %37 = sext i32 %36 to i64
  %38 = getelementptr inbounds [3 x float], ptr %35, i64 %37
  %39 = load i32, ptr %16, align 4, !tbaa !11
  %40 = sext i32 %39 to i64
  %41 = getelementptr inbounds [3 x float], ptr %38, i64 0, i64 %40
  %42 = load float, ptr %41, align 4, !tbaa !15
  %43 = load ptr, ptr %12, align 8, !tbaa !13
  %44 = load i32, ptr %15, align 4, !tbaa !11
  %45 = sext i32 %44 to i64
  %46 = getelementptr inbounds [3 x float], ptr %43, i64 %45
  %47 = load i32, ptr %16, align 4, !tbaa !11
  %48 = sext i32 %47 to i64
  %49 = getelementptr inbounds [3 x float], ptr %46, i64 0, i64 %48
  %50 = load float, ptr %49, align 4, !tbaa !15
  %51 = load ptr, ptr %12, align 8, !tbaa !13
  %52 = load i32, ptr %15, align 4, !tbaa !11
  %53 = sext i32 %52 to i64
  %54 = getelementptr inbounds [3 x float], ptr %51, i64 %53
  %55 = load i32, ptr %16, align 4, !tbaa !11
  %56 = sext i32 %55 to i64
  %57 = getelementptr inbounds [3 x float], ptr %54, i64 0, i64 %56
  %58 = load float, ptr %57, align 4, !tbaa !15
  %59 = fmul float %50, %58
  %60 = call float @llvm.fmuladd.f32(float %34, float %42, float %59)
  %61 = fpext float %60 to double
  %62 = load double, ptr %17, align 8, !tbaa !23
  %63 = fadd double %62, %61
  store double %63, ptr %17, align 8, !tbaa !23
  br label %64

64:                                               ; preds = %26
  %65 = load i32, ptr %16, align 4, !tbaa !11
  %66 = add nsw i32 %65, 1
  store i32 %66, ptr %16, align 4, !tbaa !11
  br label %23, !llvm.loop !28

67:                                               ; preds = %23
  br label %68

68:                                               ; preds = %67
  %69 = load i32, ptr %15, align 4, !tbaa !11
  %70 = add nsw i32 %69, 1
  store i32 %70, ptr %15, align 4, !tbaa !11
  br label %18, !llvm.loop !29

71:                                               ; preds = %18
  %72 = load double, ptr %17, align 8, !tbaa !23
  %73 = load i32, ptr %10, align 4, !tbaa !11
  %74 = mul nsw i32 2, %73
  %75 = mul nsw i32 %74, 3
  %76 = sitofp i32 %75 to double
  %77 = fdiv double %72, %76
  %78 = call double @sqrt(double noundef %77) #9, !tbaa !11
  store double %78, ptr %17, align 8, !tbaa !23
  %79 = load float, ptr %13, align 4, !tbaa !15
  %80 = fpext float %79 to double
  %81 = load double, ptr %17, align 8, !tbaa !23
  %82 = fmul double %80, %81
  %83 = load float, ptr %14, align 4, !tbaa !15
  %84 = fpext float %83 to double
  %85 = fcmp olt double %82, %84
  br i1 %85, label %86, label %92

86:                                               ; preds = %71
  %87 = load float, ptr %13, align 4, !tbaa !15
  %88 = fpext float %87 to double
  %89 = load double, ptr %17, align 8, !tbaa !23
  %90 = fmul double %88, %89
  %91 = fptrunc double %90 to float
  store float %91, ptr %14, align 4, !tbaa !15
  br label %92

92:                                               ; preds = %86, %71
  store i32 0, ptr %15, align 4, !tbaa !11
  br label %93

93:                                               ; preds = %112, %92
  %94 = load i32, ptr %15, align 4, !tbaa !11
  %95 = load i32, ptr %10, align 4, !tbaa !11
  %96 = icmp slt i32 %94, %95
  br i1 %96, label %97, label %115

97:                                               ; preds = %93
  %98 = load ptr, ptr %8, align 8, !tbaa !4
  %99 = load ptr, ptr %9, align 8, !tbaa !9
  %100 = load i32, ptr %15, align 4, !tbaa !11
  %101 = load ptr, ptr %11, align 8, !tbaa !13
  %102 = load i32, ptr %15, align 4, !tbaa !11
  %103 = sext i32 %102 to i64
  %104 = getelementptr inbounds [3 x float], ptr %101, i64 %103
  %105 = getelementptr inbounds [3 x float], ptr %104, i64 0, i64 0
  %106 = load ptr, ptr %12, align 8, !tbaa !13
  %107 = load i32, ptr %15, align 4, !tbaa !11
  %108 = sext i32 %107 to i64
  %109 = getelementptr inbounds [3 x float], ptr %106, i64 %108
  %110 = getelementptr inbounds [3 x float], ptr %109, i64 0, i64 0
  %111 = load float, ptr %14, align 4, !tbaa !15
  call void @_Z8cmp_rvecP8_IO_FILEPKciPKfS4_ff(ptr noundef %98, ptr noundef %99, i32 noundef %100, ptr noundef %105, ptr noundef %110, float noundef 0.000000e+00, float noundef %111)
  br label %112

112:                                              ; preds = %97
  %113 = load i32, ptr %15, align 4, !tbaa !11
  %114 = add nsw i32 %113, 1
  store i32 %114, ptr %15, align 4, !tbaa !11
  br label %93, !llvm.loop !30

115:                                              ; preds = %93
  call void @llvm.lifetime.end.p0(i64 8, ptr %17) #9
  call void @llvm.lifetime.end.p0(i64 4, ptr %16) #9
  call void @llvm.lifetime.end.p0(i64 4, ptr %15) #9
  ret void
}

; Function Attrs: mustprogress uwtable
define void @_Z9cmp_rvecsP8_IO_FILEPKciPA3_KfS5_bff(ptr noundef %0, ptr noundef %1, i32 noundef %2, ptr noundef %3, ptr noundef %4, i1 noundef zeroext %5, float noundef %6, float noundef %7) #0 {
  %9 = alloca ptr, align 8
  %10 = alloca ptr, align 8
  %11 = alloca i32, align 4
  %12 = alloca ptr, align 8
  %13 = alloca ptr, align 8
  %14 = alloca i8, align 1
  %15 = alloca float, align 4
  %16 = alloca float, align 4
  %17 = alloca i32, align 4
  %18 = alloca i32, align 4
  %19 = alloca double, align 8
  %20 = alloca double, align 8
  store ptr %0, ptr %9, align 8, !tbaa !4
  store ptr %1, ptr %10, align 8, !tbaa !9
  store i32 %2, ptr %11, align 4, !tbaa !11
  store ptr %3, ptr %12, align 8, !tbaa !13
  store ptr %4, ptr %13, align 8, !tbaa !13
  %21 = zext i1 %5 to i8
  store i8 %21, ptr %14, align 1, !tbaa !19
  store float %6, ptr %15, align 4, !tbaa !15
  store float %7, ptr %16, align 4, !tbaa !15
  call void @llvm.lifetime.start.p0(i64 4, ptr %17) #9
  call void @llvm.lifetime.start.p0(i64 4, ptr %18) #9
  call void @llvm.lifetime.start.p0(i64 8, ptr %19) #9
  call void @llvm.lifetime.start.p0(i64 8, ptr %20) #9
  %22 = load i8, ptr %14, align 1, !tbaa !19, !range !21, !noundef !22
  %23 = trunc i8 %22 to i1
  br i1 %23, label %24, label %72

24:                                               ; preds = %8
  store double 0.000000e+00, ptr %20, align 8, !tbaa !23
  store i32 0, ptr %17, align 4, !tbaa !11
  br label %25

25:                                               ; preds = %60, %24
  %26 = load i32, ptr %17, align 4, !tbaa !11
  %27 = load i32, ptr %11, align 4, !tbaa !11
  %28 = icmp slt i32 %26, %27
  br i1 %28, label %29, label %63

29:                                               ; preds = %25
  store i32 0, ptr %18, align 4, !tbaa !11
  br label %30

30:                                               ; preds = %56, %29
  %31 = load i32, ptr %18, align 4, !tbaa !11
  %32 = icmp slt i32 %31, 3
  br i1 %32, label %33, label %59

33:                                               ; preds = %30
  %34 = load ptr, ptr %12, align 8, !tbaa !13
  %35 = load i32, ptr %17, align 4, !tbaa !11
  %36 = sext i32 %35 to i64
  %37 = getelementptr inbounds [3 x float], ptr %34, i64 %36
  %38 = load i32, ptr %18, align 4, !tbaa !11
  %39 = sext i32 %38 to i64
  %40 = getelementptr inbounds [3 x float], ptr %37, i64 0, i64 %39
  %41 = load float, ptr %40, align 4, !tbaa !15
  %42 = load ptr, ptr %13, align 8, !tbaa !13
  %43 = load i32, ptr %17, align 4, !tbaa !11
  %44 = sext i32 %43 to i64
  %45 = getelementptr inbounds [3 x float], ptr %42, i64 %44
  %46 = load i32, ptr %18, align 4, !tbaa !11
  %47 = sext i32 %46 to i64
  %48 = getelementptr inbounds [3 x float], ptr %45, i64 0, i64 %47
  %49 = load float, ptr %48, align 4, !tbaa !15
  %50 = fsub float %41, %49
  %51 = fpext float %50 to double
  store double %51, ptr %19, align 8, !tbaa !23
  %52 = load double, ptr %19, align 8, !tbaa !23
  %53 = load double, ptr %19, align 8, !tbaa !23
  %54 = load double, ptr %20, align 8, !tbaa !23
  %55 = call double @llvm.fmuladd.f64(double %52, double %53, double %54)
  store double %55, ptr %20, align 8, !tbaa !23
  br label %56

56:                                               ; preds = %33
  %57 = load i32, ptr %18, align 4, !tbaa !11
  %58 = add nsw i32 %57, 1
  store i32 %58, ptr %18, align 4, !tbaa !11
  br label %30, !llvm.loop !25

59:                                               ; preds = %30
  br label %60

60:                                               ; preds = %59
  %61 = load i32, ptr %17, align 4, !tbaa !11
  %62 = add nsw i32 %61, 1
  store i32 %62, ptr %17, align 4, !tbaa !11
  br label %25, !llvm.loop !27

63:                                               ; preds = %25
  %64 = load ptr, ptr %9, align 8, !tbaa !4
  %65 = load ptr, ptr %10, align 8, !tbaa !9
  %66 = load double, ptr %20, align 8, !tbaa !23
  %67 = load i32, ptr %11, align 4, !tbaa !11
  %68 = sitofp i32 %67 to double
  %69 = fdiv double %66, %68
  %70 = call double @sqrt(double noundef %69) #9, !tbaa !11
  %71 = call i32 (ptr, ptr, ...) @fprintf(ptr noundef %64, ptr noundef @.str.4, ptr noundef %65, double noundef %70) #9
  br label %80

72:                                               ; preds = %8
  %73 = load ptr, ptr %9, align 8, !tbaa !4
  %74 = load ptr, ptr %10, align 8, !tbaa !9
  %75 = load i32, ptr %11, align 4, !tbaa !11
  %76 = load ptr, ptr %12, align 8, !tbaa !13
  %77 = load ptr, ptr %13, align 8, !tbaa !13
  %78 = load float, ptr %15, align 4, !tbaa !15
  %79 = load float, ptr %16, align 4, !tbaa !15
  call void @_ZL16cmp_rvecs_rmstolP8_IO_FILEPKciPA3_KfS5_ff(ptr noundef %73, ptr noundef %74, i32 noundef %75, ptr noundef %76, ptr noundef %77, float noundef %78, float noundef %79)
  br label %80

80:                                               ; preds = %72, %63
  call void @llvm.lifetime.end.p0(i64 8, ptr %20) #9
  call void @llvm.lifetime.end.p0(i64 8, ptr %19) #9
  call void @llvm.lifetime.end.p0(i64 4, ptr %18) #9
  call void @llvm.lifetime.end.p0(i64 4, ptr %17) #9
  ret void
}